target datalayout = "e-m:e-p270:32:32-p271:32:32-p272:64:64-i64:64-i128:128-f80:128-n8:16:32:64-S128"
target triple = "x86_64-pc-linux-gnu"

%struct.Msat_IntVec_t_ = type { ptr, i32, i32 }

; Function Attrs: nounwind uwtable
define ptr @Msat_IntVecDupArray(ptr noundef %0) #0 {
  %2 = alloca ptr, align 8
  %3 = alloca ptr, align 8
  store ptr %0, ptr %2, align 8, !tbaa !7
  call void @llvm.lifetime.start.p0(i64 8, ptr %3) #7
  %4 = call noalias ptr @malloc(i64 noundef 16) #8
  store ptr %4, ptr %3, align 8, !tbaa !7
  %5 = load ptr, ptr %2, align 8, !tbaa !7
  %6 = getelementptr inbounds nuw %struct.Msat_IntVec_t_, ptr %5, i32 0, i32 1
  %7 = load i32, ptr %6, align 8, !tbaa !10
  %8 = load ptr, ptr %3, align 8, !tbaa !7
  %9 = getelementptr inbounds nuw %struct.Msat_IntVec_t_, ptr %8, i32 0, i32 1
  store i32 %7, ptr %9, align 8, !tbaa !10
  %10 = load ptr, ptr %2, align 8, !tbaa !7
  %11 = getelementptr inbounds nuw %struct.Msat_IntVec_t_, ptr %10, i32 0, i32 2
  %12 = load i32, ptr %11, align 4, !tbaa !13
  %13 = load ptr, ptr %3, align 8, !tbaa !7
  %14 = getelementptr inbounds nuw %struct.Msat_IntVec_t_, ptr %13, i32 0, i32 2
  store i32 %12, ptr %14, align 4, !tbaa !13
  %15 = load ptr, ptr %2, align 8, !tbaa !7
  %16 = getelementptr inbounds nuw %struct.Msat_IntVec_t_, ptr %15, i32 0, i32 0
  %17 = load ptr, ptr %16, align 8, !tbaa !14
  %18 = load ptr, ptr %3, align 8, !tbaa !7
  %19 = getelementptr inbounds nuw %struct.Msat_IntVec_t_, ptr %18, i32 0, i32 0
  store ptr %17, ptr %19, align 8, !tbaa !14
  %20 = load ptr, ptr %2, align 8, !tbaa !7
  %21 = getelementptr inbounds nuw %struct.Msat_IntVec_t_, ptr %20, i32 0, i32 1
  store i32 0, ptr %21, align 8, !tbaa !10
  %22 = load ptr, ptr %2, align 8, !tbaa !7
  %23 = getelementptr inbounds nuw %struct.Msat_IntVec_t_, ptr %22, i32 0, i32 2
  store i32 0, ptr %23, align 4, !tbaa !13
  %24 = load ptr, ptr %2, align 8, !tbaa !7
  %25 = getelementptr inbounds nuw %struct.Msat_IntVec_t_, ptr %24, i32 0, i32 0
  store ptr null, ptr %25, align 8, !tbaa !14
  %26 = load ptr, ptr %3, align 8, !tbaa !7
  call void @llvm.lifetime.end.p0(i64 8, ptr %3) #7
  ret ptr %26
}