; Function Attrs: mustprogress nofree nounwind willreturn memory(write, argmem: readwrite, inaccessiblemem: readwrite) uwtable
define noalias noundef ptr @Msat_IntVecDupArray(ptr noundef captures(none) %0) local_unnamed_addr #4 {
  %2 = tail call noalias dereferenceable_or_null(16) ptr @malloc(i64 noundef 16) #19
  %3 = getelementptr inbounds nuw i8, ptr %0, i64 8
  %4 = load i32, ptr %3, align 8, !tbaa !3
  %5 = getelementptr inbounds nuw i8, ptr %2, i64 8
  store i32 %4, ptr %5, align 8, !tbaa !3
  %6 = getelementptr inbounds nuw i8, ptr %0, i64 12
  %7 = load i32, ptr %6, align 4, !tbaa !10
  %8 = getelementptr inbounds nuw i8, ptr %2, i64 12
  store i32 %7, ptr %8, align 4, !tbaa !10
  %9 = load ptr, ptr %0, align 8, !tbaa !11
  store ptr %9, ptr %2, align 8, !tbaa !11
  tail call void @llvm.memset.p0.i64(ptr noundef nonnull align 8 dereferenceable(16) %0, i8 0, i64 16, i1 false)
  ret ptr %2
}